(lp1
(dp2
VTPose
p3
(dp4
S'characterName'
p5
VElisa
p6
sS'poseName'
p7
g3
sS'rigData'
p8
(lp9
(dp10
(VRS_Right
VRT_LegPV
I0
tp11
(F0
F0
F0
F0
F0
F0
tp12
s(VRS_Left
VRT_MiddleFK
I2
tp13
(F0
F0
F0
F0
F0
F0
tp14
s(VRS_Right
VRT_PinkyFK
I2
tp15
(F0
F0
F0
F0
F0
F0
tp16
s(VRS_Right
VRT_ThumbFK
I2
tp17
(F0
F0
F0
F0
F0
F0
tp18
s(VRS_Left
VRT_PinkyFK
I2
tp19
(F0
F0
F0
F0
F0
F0
tp20
s(VRS_Right
VRT_ArmPV
I0
tp21
(F0
F0
F0
F0
F0
F0
tp22
s(VRS_Left
VRT_MiddleFK
I1
tp23
(F0
F0
F0
F0
F0
F0
tp24
s(VRS_Right
VRT_PinkyFK
I3
tp25
(F0
F0
F0
F0
F0
F0
tp26
s(VRS_Left
VRT_PinkyFK
I3
tp27
(F0
F0
F0
F0
F0
F0
tp28
s(VRS_Center
VRT_SpineFK
I0
tp29
(F0
F0
F0
F0
F0
F0
tp30
s(VRS_Left
VRT_MiddleFK
I0
tp31
(F0
F0
F0
F0
F0
F0
tp32
s(VRS_Right
VRT_WristFK
I0
tp33
(F0
F0
F0
F0
F0
F0
tp34
s(VRS_Center
VRT_HeadFK
I0
tp35
(F0
F0
F0
F0
F0
F0
tp36
s(VRS_Center
VRT_SpineFK
I1
tp37
(F0
F0
F0
F0
F0
F0
tp38
s(VRS_Left
VRT_ThumbFK
I2
tp39
(F0
F0
F0
F0
F0
F0
tp40
s(VRS_Right
VRT_Clavicle
I0
tp41
(F0
F0
F0
F0
F0
F0
tp42
s(VRS_Right
VRT_PinkyFK
I1
tp43
(F0
F0
F0
F0
F0
F0
tp44
s(VRS_Right
VRT_AnkleIKRotation
I0
tp45
(F0
F0
F0
F0
F0
F0
tp46
s(VRS_Left
VRT_ThumbFK
I1
tp47
(F0
F0
F0
F0
F0
F0
tp48
s(VRS_Left
VRT_AnkleIKRotation
I0
tp49
(F0
F0
F0
F0
F0
F0
tp50
s(VRS_Left
VRT_IndexFK
I3
tp51
(F0
F0
F0
F0
F0
F0
tp52
s(VRS_Right
VRT_ArmIKMain
I0
tp53
(F0
F0
F0
F0
F0
F0
tp54
s(VRS_Right
VRT_RingFK
I2
tp55
(F0
F0
F0
F0
F0
F0
tp56
s(VRS_Left
VRT_ShoulderFK
I0
tp57
(F0
F0
F0
F0
F0
F0
tp58
s(VRS_Left
VRT_ThumbFK
I0
tp59
(F0
F0
F0
F0
F0
F0
tp60
s(VRS_Left
VRT_RingFK
I0
tp61
(F0
F0
F0
F0
F0
F0
tp62
s(VRS_Left
VRT_IndexFK
I2
tp63
(F0
F0
F0
F0
F0
F0
tp64
s(VRS_Left
VRT_FootIKMain
I0
tp65
(F0
F0
F0
F0
F0
F0
tp66
s(VRS_Right
VRT_MiddleFK
I0
tp67
(F0
F0
F0
F0
F0
F0
tp68
s(VRS_Left
VRT_RingFK
I1
tp69
(F0
F0
F0
F0
F0
F0
tp70
s(VRS_Left
VRT_IndexFK
I1
tp71
(F0
F0
F0
F0
F0
F0
tp72
s(VRS_Left
VRT_LegFK
I1
tp73
(F0
F0
F0
F0
F0
F0
tp74
s(VRS_Left
VRT_RingFK
I3
tp75
(F0
F0
F0
F0
F0
F0
tp76
s(VRS_Right
VRT_MiddleFK
I3
tp77
(F0
F0
F0
F0
F0
F0
tp78
s(VRS_Right
VRT_IndexFK
I2
tp79
(F0
F0
F0
F0
F0
F0
tp80
s(VRS_Left
VRT_IndexFK
I0
tp81
(F0
F0
F0
F0
F0
F0
tp82
s(VRS_Left
VRT_LegFK
I0
tp83
(F0
F0
F0
F0
F0
F0
tp84
s(VRS_Right
VRT_MiddleFK
I2
tp85
(F0
F0
F0
F0
F0
F0
tp86
s(VRS_Left
VRT_FootToeSwive
I0
tp87
(F0
F0
F0
F0
F0
F0
tp88
s(VRS_Right
VRT_FootToeSwive
I0
tp89
(F0
F0
F0
F0
F0
F0
tp90
s(VRS_Left
VRT_LegFK
I3
tp91
(F0
F0
F0
F0
F0
F0
tp92
s(VRS_Center
VRT_SpineChest
I0
tp93
(F0
F0
F0
F0
F0
F0
tp94
s(VRS_Center
VRT_SpinePelvis
I0
tp95
(F0
F0
F0
F0
F0
F0
tp96
s(VRS_Left
VRT_LegFK
I2
tp97
(F0
F0
F0
F0
F0
F0
tp98
s(VRS_Left
VRT_WristFK
I0
tp99
(F0
F0
F0
F0
F0
F0
tp100
s(VRS_Right
VRT_FootRotation
I0
tp101
(F0
F0
F0
F0
F0
F0
tp102
s(VRS_Right
VRT_FootBaseSwive
I0
tp103
(F0
F0
F0
F0
F0
F0
tp104
s(VRS_Left
VRT_FootBaseSwive
I0
tp105
(F0
F0
F0
F0
F0
F0
tp106
s(VRS_Right
VRT_LegFK
I3
tp107
(F0
F0
F0
F0
F0
F0
tp108
s(VRS_Left
VRT_RingFK
I2
tp109
(F0
F0
F0
F0
F0
F0
tp110
s(VRS_Right
VRT_LegFK
I2
tp111
(F0
F0
F0
F0
F0
F0
tp112
s(VRS_Left
VRT_ArmIKMain
I0
tp113
(F0
F0
F0
F0
F0
F0
tp114
s(VRS_Center
VRT_NeckFK
I0
tp115
(F0
F0
F0
F0
F0
F0
tp116
s(VRS_Left
VRT_ElbowFK
I0
tp117
(F0
F0
F0
F0
F0
F0
tp118
s(VRS_Right
VRT_LegFK
I1
tp119
(F0
F0
F0
F0
F0
F0
tp120
s(VRS_Right
VRT_FootIKMain
I0
tp121
(F0
F0
F0
F0
F0
F0
tp122
s(VRS_Right
VRT_PinkyFK
I0
tp123
(F0
F0
F0
F0
F0
F0
tp124
s(VRS_Right
VRT_RingFK
I0
tp125
(F0
F0
F0
F0
F0
F0
tp126
s(VRS_Right
VRT_LegFK
I0
tp127
(F0
F0
F0
F0
F0
F0
tp128
s(VRS_Right
VRT_ShoulderFK
I0
tp129
(F0
F0
F0
F0
F0
F0
tp130
s(VRS_Left
VRT_LegPV
I0
tp131
(F0
F0
F0
F0
F0
F0
tp132
s(VRS_Center
VRT_SpineUpperBody
I0
tp133
(F0
F0
F0
F0
F0
F0
tp134
s(VRS_Left
VRT_Clavicle
I0
tp135
(F0
F0
F0
F0
F0
F0
tp136
s(VRS_Right
VRT_RingFK
I1
tp137
(F0
F0
F0
F0
F0
F0
tp138
s(VRS_Center
VRT_NeckFK
I1
tp139
(F0
F0
F0
F0
F0
F0
tp140
s(VRS_Right
VRT_ThumbFK
I1
tp141
(F0
F0
F0
F0
F0
F0
tp142
s(VRS_Left
VRT_FootRotation
I0
tp143
(F0
F0
F0
F0
F0
F0
tp144
s(VRS_Left
VRT_ArmPV
I0
tp145
(F0
F0
F0
F0
F0
F0
tp146
s(VRS_Right
VRT_MiddleFK
I1
tp147
(F0
F0
F0
F0
F0
F0
tp148
s(VRS_Right
VRT_ThumbFK
I0
tp149
(F0
F0
F0
F0
F0
F0
tp150
s(VRS_Left
VRT_PinkyFK
I0
tp151
(F0
F0
F0
F0
F0
F0
tp152
s(VRS_Right
VRT_RingFK
I3
tp153
(F0
F0
F0
F0
F0
F0
tp154
s(VRS_Right
VRT_ElbowFK
I0
tp155
(F0
F0
F0
F0
F0
F0
tp156
s(VRS_Right
VRT_IndexFK
I3
tp157
(F0
F0
F0
F0
F0
F0
tp158
s(VRS_Left
VRT_MiddleFK
I3
tp159
(F0
F0
F0
F0
F0
F0
tp160
s(VRS_Right
VRT_IndexFK
I0
tp161
(F0
F0
F0
F0
F0
F0
tp162
s(VRS_Left
VRT_PinkyFK
I1
tp163
(F0
F0
F0
F0
F0
F0
tp164
s(VRS_Right
VRT_IndexFK
I1
tp165
(F0
F0
F0
F0
F0
F0
tp166
sa(dp167
(VRS_Center
VRT_Global
I1
tp168
(F0
F0
F0
F0
F0
F0
tp169
s(VRS_Center
VRT_Global
I0
tp170
(F0
F0
F0
F0
F0
F0
tp171
s(VRS_Center
VRT_Global
I2
tp172
(F0
F0
F0
F0
F0
F0
tp173
sasS'icon'
p174
VE:\u005cUsers\u005cadmin\u005cDocuments\u005cGitHub\u005cSERiggingTools\u005cPoseLibrary\u005cPoseFile\u005cTPose.bmp
p175
ssa(dp176
VTestPose
p177
(dp178
S'characterName'
p179
VElisa
p180
sS'poseName'
p181
g177
sS'rigData'
p182
(lp183
(dp184
(VRS_Right
VRT_LegPV
I0
tp185
(F0
F0
F0
F0
F0
F0
tp186
s(VRS_Left
VRT_MiddleFK
I2
tp187
(F0
F0
F0
F0
F0
F0
tp188
s(VRS_Right
VRT_PinkyFK
I2
tp189
(F0
F0
F0
F0
F0
F0
tp190
s(VRS_Right
VRT_ThumbFK
I2
tp191
(F0
F0
F0
F0
F0
F0
tp192
s(VRS_Left
VRT_PinkyFK
I2
tp193
(F0
F0
F0
F0
F0
F0
tp194
s(VRS_Right
VRT_ArmPV
I0
tp195
(F0
F0
F0
F0
F0
F0
tp196
s(VRS_Left
VRT_MiddleFK
I1
tp197
(F0
F0
F0
F0
F0
F0
tp198
s(VRS_Right
VRT_PinkyFK
I3
tp199
(F0
F0
F0
F0
F0
F0
tp200
s(VRS_Left
VRT_PinkyFK
I3
tp201
(F0
F0
F0
F0
F0
F0
tp202
s(VRS_Center
VRT_SpineFK
I0
tp203
(F0
F0
F0
F0
F0
F0
tp204
s(VRS_Left
VRT_MiddleFK
I0
tp205
(F0
F0
F0
F0
F0
F0
tp206
s(VRS_Right
VRT_WristFK
I0
tp207
(F0
F0
F0
F0
F0
F0
tp208
s(VRS_Center
VRT_HeadFK
I0
tp209
(F0
F0
F0
F0
F0
F0
tp210
s(VRS_Center
VRT_SpineFK
I1
tp211
(F0
F0
F0
F0
F0
F0
tp212
s(VRS_Left
VRT_ThumbFK
I2
tp213
(F0
F0
F0
F0
F0
F0
tp214
s(VRS_Right
VRT_Clavicle
I0
tp215
(F0
F0
F0
F0
F0
F0
tp216
s(VRS_Left
VRT_PinkyFK
I1
tp217
(F0
F0
F0
F0
F0
F0
tp218
s(VRS_Right
VRT_PinkyFK
I1
tp219
(F0
F0
F0
F0
F0
F0
tp220
s(VRS_Center
VRT_NeckFK
I0
tp221
(F0
F0
F0
F0
F0
F0
tp222
s(VRS_Right
VRT_AnkleIKRotation
I0
tp223
(F0
F0
F0
F0
F0
F0
tp224
s(VRS_Left
VRT_ThumbFK
I1
tp225
(F0
F0
F0
F0
F0
F0
tp226
s(VRS_Left
VRT_AnkleIKRotation
I0
tp227
(F0
F0
F0
F0
F0
F0
tp228
s(VRS_Left
VRT_IndexFK
I3
tp229
(F0
F0
F0
F0
F0
F0
tp230
s(VRS_Right
VRT_ArmIKMain
I0
tp231
(F0
F0
F0
F0
F0
F0
tp232
s(VRS_Left
VRT_ArmPV
I0
tp233
(F0
F0
F0
F0
F0
F0
tp234
s(VRS_Left
VRT_ShoulderFK
I0
tp235
(F0
F0
F0
F0
F0
F0
tp236
s(VRS_Left
VRT_ThumbFK
I0
tp237
(F0
F0
F0
F0
F0
F0
tp238
s(VRS_Left
VRT_RingFK
I0
tp239
(F0
F0
F0
F0
F0
F0
tp240
s(VRS_Left
VRT_IndexFK
I2
tp241
(F0
F0
F0
F0
F0
F0
tp242
s(VRS_Left
VRT_FootIKMain
I0
tp243
(F0
F0
F0
F0
F0
F0
tp244
s(VRS_Right
VRT_MiddleFK
I0
tp245
(F0
F0
F0
F0
F0
F0
tp246
s(VRS_Left
VRT_RingFK
I1
tp247
(F0
F0
F0
F0
F0
F0
tp248
s(VRS_Left
VRT_IndexFK
I1
tp249
(F0
F0
F0
F0
F0
F0
tp250
s(VRS_Left
VRT_LegFK
I1
tp251
(F0
F0
F0
F0
F0
F0
tp252
s(VRS_Left
VRT_RingFK
I3
tp253
(F0
F0
F0
F0
F0
F0
tp254
s(VRS_Right
VRT_MiddleFK
I3
tp255
(F0
F0
F0
F0
F0
F0
tp256
s(VRS_Left
VRT_IndexFK
I0
tp257
(F0
F0
F0
F0
F0
F0
tp258
s(VRS_Left
VRT_LegFK
I0
tp259
(F0
F0
F0
F-16.88870366452354
F-16.344476660555237
F22.758313591856801
tp260
s(VRS_Right
VRT_MiddleFK
I2
tp261
(F0
F0
F0
F0
F0
F0
tp262
s(VRS_Right
VRT_FootToeSwive
I0
tp263
(F0
F0
F0
F0
F0
F0
tp264
s(VRS_Left
VRT_LegFK
I3
tp265
(F0
F0
F0
F0
F0
F0
tp266
s(VRS_Right
VRT_ThumbFK
I0
tp267
(F0
F0
F0
F0
F0
F0
tp268
s(VRS_Center
VRT_SpinePelvis
I0
tp269
(F0
F0
F0
F0
F0
F0
tp270
s(VRS_Left
VRT_LegFK
I2
tp271
(F0
F0
F0
F0
F0
F0
tp272
s(VRS_Left
VRT_PinkyFK
I0
tp273
(F0
F0
F0
F0
F0
F0
tp274
s(VRS_Right
VRT_FootRotation
I0
tp275
(F0
F0
F0
F0
F0
F0
tp276
s(VRS_Right
VRT_FootBaseSwive
I0
tp277
(F0
F0
F0
F0
F0
F0
tp278
s(VRS_Right
VRT_IndexFK
I3
tp279
(F0
F0
F0
F0
F0
F0
tp280
s(VRS_Left
VRT_FootBaseSwive
I0
tp281
(F0
F0
F0
F0
F0
F0
tp282
s(VRS_Right
VRT_LegFK
I3
tp283
(F0
F0
F0
F0
F0
F0
tp284
s(VRS_Left
VRT_RingFK
I2
tp285
(F0
F0
F0
F0
F0
F0
tp286
s(VRS_Right
VRT_LegFK
I2
tp287
(F0
F0
F0
F0
F0
F0
tp288
s(VRS_Right
VRT_ThumbFK
I1
tp289
(F0
F0
F0
F0
F0
F0
tp290
s(VRS_Right
VRT_LegFK
I1
tp291
(F0
F0
F0
F0
F0
F0
tp292
s(VRS_Right
VRT_FootIKMain
I0
tp293
(F0
F0
F0
F0
F0
F0
tp294
s(VRS_Right
VRT_MiddleFK
I1
tp295
(F0
F0
F0
F0
F0
F0
tp296
s(VRS_Right
VRT_PinkyFK
I0
tp297
(F0
F0
F0
F0
F0
F0
tp298
s(VRS_Right
VRT_RingFK
I0
tp299
(F0
F0
F0
F0
F0
F0
tp300
s(VRS_Right
VRT_LegFK
I0
tp301
(F0
F0
F0
F0
F0
F0
tp302
s(VRS_Right
VRT_ShoulderFK
I0
tp303
(F0
F0
F0
F0
F0
F0
tp304
s(VRS_Center
VRT_SpineUpperBody
I0
tp305
(F0
F0
F0
F0
F0
F0
tp306
s(VRS_Left
VRT_LegPV
I0
tp307
(F0
F0
F0
F0
F0
F0
tp308
s(VRS_Right
VRT_RingFK
I2
tp309
(F0
F0
F0
F0
F0
F0
tp310
s(VRS_Right
VRT_RingFK
I1
tp311
(F0
F0
F0
F0
F0
F0
tp312
s(VRS_Center
VRT_NeckFK
I1
tp313
(F0
F0
F0
F0
F0
F0
tp314
s(VRS_Left
VRT_ElbowFK
I0
tp315
(F0
F0
F0
F0
F0
F0
tp316
s(VRS_Left
VRT_FootRotation
I0
tp317
(F0
F0
F0
F0
F0
F0
tp318
s(VRS_Left
VRT_Clavicle
I0
tp319
(F0
F0
F0
F0
F0
F0
tp320
s(VRS_Right
VRT_IndexFK
I2
tp321
(F0
F0
F0
F0
F0
F0
tp322
s(VRS_Center
VRT_SpineChest
I0
tp323
(F0
F0
F0
F0
F0
F0
tp324
s(VRS_Left
VRT_WristFK
I0
tp325
(F0
F0
F0
F0
F0
F0
tp326
s(VRS_Right
VRT_RingFK
I3
tp327
(F0
F0
F0
F0
F0
F0
tp328
s(VRS_Right
VRT_ElbowFK
I0
tp329
(F0
F0
F0
F0
F0
F0
tp330
s(VRS_Left
VRT_ArmIKMain
I0
tp331
(F0
F0
F0
F0
F0
F0
tp332
s(VRS_Left
VRT_MiddleFK
I3
tp333
(F0
F0
F0
F0
F0
F0
tp334
s(VRS_Right
VRT_IndexFK
I0
tp335
(F0
F0
F0
F0
F0
F0
tp336
s(VRS_Left
VRT_FootToeSwive
I0
tp337
(F0
F0
F0
F0
F0
F0
tp338
s(VRS_Right
VRT_IndexFK
I1
tp339
(F0
F0
F0
F0
F0
F0
tp340
sa(dp341
(VRS_Center
VRT_Global
I1
tp342
(F0
F0
F0
F0
F0
F0
tp343
s(VRS_Center
VRT_Global
I0
tp344
(F0
F0
F0
F0
F0
F0
tp345
s(VRS_Center
VRT_Global
I2
tp346
(F0
F0
F0
F0
F0
F0
tp347
sasS'icon'
p348
VE:\u005cUsers\u005cadmin\u005cDocuments\u005cGitHub\u005cSERiggingTools\u005cPoseLibrary\u005cPoseFile\u005cTestPose.bmp
p349
ssa.